; Function Attrs: inlinehint nofree norecurse nosync nounwind memory(argmem: readwrite) uwtable
define internal fastcc void @rev_init_mrp(ptr noundef nonnull writeonly captures(none) initializes((0, 28)) %0, ptr noundef %1, i32 noundef range(i32 2, -2147483648) %2, i32 noundef %3) unnamed_addr #4 {
  %5 = zext nneg i32 %2 to i64
  %6 = getelementptr i8, ptr %1, i64 %5
  %7 = sext i32 %3 to i64
  %8 = getelementptr i8, ptr %6, i64 %7
  %9 = getelementptr i8, ptr %8, i64 -1
  store ptr %9, ptr %0, align 8, !tbaa !86
  %10 = getelementptr inbounds nuw i8, ptr %0, i64 20
  %11 = getelementptr inbounds nuw i8, ptr %0, i64 24
  store i32 1, ptr %11, align 8, !tbaa !87
  %12 = getelementptr inbounds nuw i8, ptr %0, i64 16
  store i32 0, ptr %12, align 8, !tbaa !50
  %13 = getelementptr inbounds nuw i8, ptr %0, i64 8
  store i64 0, ptr %13, align 8, !tbaa !47
  %14 = ptrtoint ptr %9 to i64
  %15 = trunc i64 %14 to i32
  %16 = and i32 %15, 3
  br label %17

17:                                               ; preds = %4, %29
  %18 = phi ptr [ %9, %4 ], [ %30, %29 ]
  %.027 = phi i32 [ 0, %4 ], [ %42, %29 ]
  %19 = phi i32 [ %3, %4 ], [ %23, %29 ]
  %20 = phi i1 [ true, %4 ], [ %40, %29 ]
  %21 = phi i32 [ 0, %4 ], [ %39, %29 ]
  %22 = phi i64 [ 0, %4 ], [ %38, %29 ]
  %23 = add nsw i32 %19, -1
  store i32 %23, ptr %10, align 4, !tbaa !85
  %24 = icmp sgt i32 %19, 0
  br i1 %24, label %25, label %29

25:                                               ; preds = %17
  %26 = getelementptr inbounds i8, ptr %18, i64 -1
  store ptr %26, ptr %0, align 8, !tbaa !86
  %27 = load i8, ptr %18, align 1, !tbaa !44
  %28 = zext i8 %27 to i64
  br label %29

29:                                               ; preds = %17, %25
  %30 = phi ptr [ %26, %25 ], [ %18, %17 ]
  %31 = phi i64 [ %28, %25 ], [ 0, %17 ]
  %32 = and i64 %31, 127
  %33 = icmp eq i64 %32, 127
  %34 = select i1 %20, i1 %33, i1 false
  %35 = select i1 %34, i32 7, i32 8
  %36 = zext nneg i32 %21 to i64
  %37 = shl i64 %31, %36
  %38 = or i64 %37, %22
  store i64 %38, ptr %13, align 8, !tbaa !47
  %39 = add i32 %35, %21
  store i32 %39, ptr %12, align 8, !tbaa !50
  %40 = icmp samesign ugt i64 %31, 143
  %41 = zext i1 %40 to i32
  store i32 %41, ptr %11, align 8, !tbaa !87
  %42 = add nuw nsw i32 %.027, 1
  %exitcond.not = icmp eq i32 %.027, %16
  br i1 %exitcond.not, label %43, label %17, !llvm.loop !96

43:                                               ; preds = %29
  %44 = icmp ugt i32 %39, 32
  br i1 %44, label %rev_read_mrp.exit, label %45

45:                                               ; preds = %43
  %46 = icmp sgt i32 %19, 4
  br i1 %46, label %47, label %51

47:                                               ; preds = %45
  %48 = getelementptr inbounds i8, ptr %30, i64 -3
  %.val.i = load i32, ptr %48, align 4, !tbaa !51
  %49 = getelementptr inbounds i8, ptr %30, i64 -4
  store ptr %49, ptr %0, align 8, !tbaa !86
  %50 = add nsw i32 %19, -5
  store i32 %50, ptr %10, align 4, !tbaa !85
  br label %.loopexit.i

51:                                               ; preds = %45
  %52 = icmp sgt i32 %19, 1
  br i1 %52, label %.preheader.i, label %.loopexit.i

.preheader.i:                                     ; preds = %51, %.preheader.i
  %53 = phi ptr [ %55, %.preheader.i ], [ %30, %51 ]
  %.147.i = phi i32 [ %59, %.preheader.i ], [ 0, %51 ]
  %.04446.i = phi i32 [ %61, %.preheader.i ], [ 24, %51 ]
  %54 = phi i32 [ %60, %.preheader.i ], [ %23, %51 ]
  %55 = getelementptr inbounds i8, ptr %53, i64 -1
  store ptr %55, ptr %0, align 8, !tbaa !86
  %56 = load i8, ptr %53, align 1, !tbaa !44
  %57 = zext i8 %56 to i32
  %58 = shl i32 %57, %.04446.i
  %59 = or i32 %58, %.147.i
  %60 = add nsw i32 %54, -1
  store i32 %60, ptr %10, align 4, !tbaa !85
  %61 = add nsw i32 %.04446.i, -8
  %62 = icmp samesign ugt i32 %54, 1
  br i1 %62, label %.preheader.i, label %.loopexit.i, !llvm.loop !97

.loopexit.i:                                      ; preds = %.preheader.i, %51, %47
  %.0.i = phi i32 [ %.val.i, %47 ], [ 0, %51 ], [ %59, %.preheader.i ]
  %63 = lshr i32 %.0.i, 24
  %64 = and i32 %.0.i, 2130706432
  %65 = icmp eq i32 %64, 2130706432
  %66 = select i1 %40, i1 %65, i1 false
  %67 = select i1 %66, i32 7, i32 8
  %68 = icmp ugt i32 %.0.i, -1879048193
  %69 = lshr i32 %.0.i, 16
  %70 = and i32 %69, 255
  %71 = shl nuw nsw i32 %70, %67
  %72 = or i32 %71, %63
  %73 = and i32 %.0.i, 8323072
  %74 = icmp eq i32 %73, 8323072
  %75 = and i1 %68, %74
  %76 = select i1 %75, i32 7, i32 8
  %77 = add nuw nsw i32 %67, %76
  %78 = icmp samesign ugt i32 %70, 143
  %79 = lshr i32 %.0.i, 8
  %80 = and i32 %79, 255
  %81 = shl nuw nsw i32 %80, %77
  %82 = or i32 %72, %81
  %83 = and i32 %.0.i, 32512
  %84 = icmp eq i32 %83, 32512
  %85 = select i1 %78, i1 %84, i1 false
  %86 = select i1 %85, i32 7, i32 8
  %87 = add nuw nsw i32 %77, %86
  %88 = icmp samesign ugt i32 %80, 143
  %89 = and i32 %.0.i, 255
  %90 = shl nuw i32 %89, %87
  %91 = or i32 %82, %90
  %92 = and i32 %.0.i, 127
  %93 = icmp eq i32 %92, 127
  %94 = select i1 %88, i1 %93, i1 false
  %95 = select i1 %94, i32 7, i32 8
  %96 = icmp samesign ugt i32 %89, 143
  %97 = zext i1 %96 to i32
  %98 = zext i32 %91 to i64
  %99 = zext nneg i32 %39 to i64
  %100 = shl nuw i64 %98, %99
  %101 = or i64 %100, %38
  store i64 %101, ptr %13, align 8, !tbaa !47
  %102 = add nuw nsw i32 %95, %39
  %103 = add nuw nsw i32 %102, %87
  store i32 %103, ptr %12, align 8, !tbaa !50
  store i32 %97, ptr %11, align 8, !tbaa !87
  br label %rev_read_mrp.exit

rev_read_mrp.exit:                                ; preds = %43, %.loopexit.i
  ret void
}